target datalayout = "e-m:e-p270:32:32-p271:32:32-p272:64:64-i64:64-i128:128-f80:128-n8:16:32:64-S128"
target triple = "x86_64-pc-linux-gnu"

%struct.Aig_Man_t_ = type { ptr, ptr, ptr, ptr, ptr, ptr, ptr, %struct.Aig_Obj_t_, i32, i32, i32, i32, i32, i32, [7 x i32], i32, ptr, i32, ptr, i32, ptr, i32, i32, i32, ptr, i32, i32, i32, i32, i32, ptr, ptr, i32, ptr, ptr, i32, ptr, ptr, i32, i32, i32, ptr, ptr, ptr, ptr, ptr, ptr, ptr, ptr, ptr, ptr, ptr, ptr, ptr, ptr, i32, ptr, ptr, ptr, ptr, i32, i64, i64, i64, ptr, ptr }
%struct.Aig_Obj_t_ = type { %union.anon, ptr, ptr, i64, i32, i32, %union.anon.0 }
%union.anon = type { ptr }
%union.anon.0 = type { ptr }
%struct.Vec_Ptr_t_ = type { i32, i32, ptr }

; Function Attrs: nounwind uwtable
define i32 @Aig_ObjCheckTfi(ptr noundef %0, ptr noundef %1, ptr noundef %2) #0 {
  %4 = alloca ptr, align 8
  %5 = alloca ptr, align 8
  %6 = alloca ptr, align 8
  store ptr %0, ptr %4, align 8
  store ptr %1, ptr %5, align 8
  store ptr %2, ptr %6, align 8
  %7 = load ptr, ptr %4, align 8
  call void @Aig_ManIncrementTravId(ptr noundef %7)
  %8 = load ptr, ptr %4, align 8
  %9 = load ptr, ptr %5, align 8
  %10 = load ptr, ptr %6, align 8
  %11 = call i32 @Aig_ObjCheckTfi_rec(ptr noundef %8, ptr noundef %9, ptr noundef %10)
  ret i32 %11
}

; Function Attrs: nounwind uwtable
define internal void @Aig_ObjClearRepr(ptr noundef %0, ptr noundef %1) #0 {
  %3 = alloca ptr, align 8
  %4 = alloca ptr, align 8
  store ptr %0, ptr %3, align 8
  store ptr %1, ptr %4, align 8
  %5 = load ptr, ptr %3, align 8
  %6 = getelementptr inbounds %struct.Aig_Man_t_, ptr %5, i32 0, i32 31
  %7 = load ptr, ptr %6, align 8
  %8 = load ptr, ptr %4, align 8
  %9 = getelementptr inbounds %struct.Aig_Obj_t_, ptr %8, i32 0, i32 5
  %10 = load i32, ptr %9, align 4
  %11 = sext i32 %10 to i64
  %12 = getelementptr inbounds ptr, ptr %7, i64 %11
  store ptr null, ptr %12, align 8
  ret void
}

; Function Attrs: nounwind uwtable
define internal ptr @Aig_ObjFindRepr(ptr noundef %0, ptr noundef %1) #0 {
  %3 = alloca ptr, align 8
  %4 = alloca ptr, align 8
  store ptr %0, ptr %3, align 8
  store ptr %1, ptr %4, align 8
  %5 = load ptr, ptr %3, align 8
  %6 = getelementptr inbounds %struct.Aig_Man_t_, ptr %5, i32 0, i32 31
  %7 = load ptr, ptr %6, align 8
  %8 = load ptr, ptr %4, align 8
  %9 = getelementptr inbounds %struct.Aig_Obj_t_, ptr %8, i32 0, i32 5
  %10 = load i32, ptr %9, align 4
  %11 = sext i32 %10 to i64
  %12 = getelementptr inbounds ptr, ptr %7, i64 %11
  %13 = load ptr, ptr %12, align 8
  ret ptr %13
}

; Function Attrs: nounwind uwtable
define internal i32 @Aig_ObjIsNode(ptr noundef %0) #0 {
  %2 = alloca ptr, align 8
  store ptr %0, ptr %2, align 8
  %3 = load ptr, ptr %2, align 8
  %4 = getelementptr inbounds %struct.Aig_Obj_t_, ptr %3, i32 0, i32 3
  %5 = load i64, ptr %4, align 8
  %6 = and i64 %5, 7
  %7 = trunc i64 %6 to i32
  %8 = icmp eq i32 %7, 5
  br i1 %8, label %16, label %9

9:                                                ; preds = %1
  %10 = load ptr, ptr %2, align 8
  %11 = getelementptr inbounds %struct.Aig_Obj_t_, ptr %10, i32 0, i32 3
  %12 = load i64, ptr %11, align 8
  %13 = and i64 %12, 7
  %14 = trunc i64 %13 to i32
  %15 = icmp eq i32 %14, 6
  br label %16

16:                                               ; preds = %9, %1
  %17 = phi i1 [ true, %1 ], [ %15, %9 ]
  %18 = zext i1 %17 to i32
  ret i32 %18
}

; Function Attrs: nounwind uwtable
define internal ptr @Vec_PtrEntry(ptr noundef %0, i32 noundef %1) #0 {
  %3 = alloca ptr, align 8
  %4 = alloca i32, align 4
  store ptr %0, ptr %3, align 8
  store i32 %1, ptr %4, align 4
  %5 = load ptr, ptr %3, align 8
  %6 = getelementptr inbounds %struct.Vec_Ptr_t_, ptr %5, i32 0, i32 2
  %7 = load ptr, ptr %6, align 8
  %8 = load i32, ptr %4, align 4
  %9 = sext i32 %8 to i64
  %10 = getelementptr inbounds ptr, ptr %7, i64 %9
  %11 = load ptr, ptr %10, align 8
  ret ptr %11
}

; Function Attrs: nounwind uwtable
define internal i32 @Vec_PtrSize(ptr noundef %0) #0 {
  %2 = alloca ptr, align 8
  store ptr %0, ptr %2, align 8
  %3 = load ptr, ptr %2, align 8
  %4 = getelementptr inbounds %struct.Vec_Ptr_t_, ptr %3, i32 0, i32 1
  %5 = load i32, ptr %4, align 4
  ret i32 %5
}

; Function Attrs: nounwind uwtable
define internal i32 @Aig_ManObjNumMax(ptr noundef %0) #0 {
  %2 = alloca ptr, align 8
  store ptr %0, ptr %2, align 8
  %3 = load ptr, ptr %2, align 8
  %4 = getelementptr inbounds %struct.Aig_Man_t_, ptr %3, i32 0, i32 4
  %5 = load ptr, ptr %4, align 8
  %6 = call i32 @Vec_PtrSize(ptr noundef %5)
  ret i32 %6
}

; Function Attrs: nounwind uwtable
define void @Aig_ManMarkValidChoices(ptr noundef %0) #0 {
  %2 = alloca ptr, align 8
  %3 = alloca ptr, align 8
  %4 = alloca ptr, align 8
  %5 = alloca i32, align 4
  store ptr %0, ptr %2, align 8
  %6 = load ptr, ptr %2, align 8
  %7 = call i32 @Aig_ManObjNumMax(ptr noundef %6)
  %8 = sext i32 %7 to i64
  %9 = mul i64 8, %8
  %10 = call noalias ptr @malloc(i64 noundef %9) #8
  %11 = load ptr, ptr %2, align 8
  %12 = getelementptr inbounds %struct.Aig_Man_t_, ptr %11, i32 0, i32 30
  store ptr %10, ptr %12, align 8
  %13 = load ptr, ptr %2, align 8
  %14 = getelementptr inbounds %struct.Aig_Man_t_, ptr %13, i32 0, i32 30
  %15 = load ptr, ptr %14, align 8
  %16 = load ptr, ptr %2, align 8
  %17 = call i32 @Aig_ManObjNumMax(ptr noundef %16)
  %18 = sext i32 %17 to i64
  %19 = mul i64 8, %18
  call void @llvm.memset.p0.i64(ptr align 8 %15, i8 0, i64 %19, i1 false)
  store i32 0, ptr %5, align 4
  br label %20

20:                                               ; preds = %105, %1
  %21 = load i32, ptr %5, align 4
  %22 = load ptr, ptr %2, align 8
  %23 = getelementptr inbounds %struct.Aig_Man_t_, ptr %22, i32 0, i32 4
  %24 = load ptr, ptr %23, align 8
  %25 = call i32 @Vec_PtrSize(ptr noundef %24)
  %26 = icmp slt i32 %21, %25
  br i1 %26, label %27, label %33

27:                                               ; preds = %20
  %28 = load ptr, ptr %2, align 8
  %29 = getelementptr inbounds %struct.Aig_Man_t_, ptr %28, i32 0, i32 4
  %30 = load ptr, ptr %29, align 8
  %31 = load i32, ptr %5, align 4
  %32 = call ptr @Vec_PtrEntry(ptr noundef %30, i32 noundef %31)
  store ptr %32, ptr %3, align 8
  br label %33

33:                                               ; preds = %27, %20
  %34 = phi i1 [ false, %20 ], [ true, %27 ]
  br i1 %34, label %35, label %108

35:                                               ; preds = %33
  %36 = load ptr, ptr %3, align 8
  %37 = icmp eq ptr %36, null
  br i1 %37, label %42, label %38

38:                                               ; preds = %35
  %39 = load ptr, ptr %3, align 8
  %40 = call i32 @Aig_ObjIsNode(ptr noundef %39)
  %41 = icmp ne i32 %40, 0
  br i1 %41, label %43, label %42

42:                                               ; preds = %38, %35
  br label %104

43:                                               ; preds = %38
  %44 = load ptr, ptr %2, align 8
  %45 = load ptr, ptr %3, align 8
  %46 = call ptr @Aig_ObjFindRepr(ptr noundef %44, ptr noundef %45)
  store ptr %46, ptr %4, align 8
  %47 = load ptr, ptr %4, align 8
  %48 = icmp eq ptr %47, null
  br i1 %48, label %49, label %50

49:                                               ; preds = %43
  br label %105

50:                                               ; preds = %43
  %51 = load ptr, ptr %4, align 8
  %52 = call i32 @Aig_ObjIsNode(ptr noundef %51)
  %53 = icmp ne i32 %52, 0
  br i1 %53, label %57, label %54

54:                                               ; preds = %50
  %55 = load ptr, ptr %2, align 8
  %56 = load ptr, ptr %3, align 8
  call void @Aig_ObjClearRepr(ptr noundef %55, ptr noundef %56)
  br label %105

57:                                               ; preds = %50
  %58 = load ptr, ptr %2, align 8
  %59 = load ptr, ptr %3, align 8
  %60 = load ptr, ptr %4, align 8
  %61 = call i32 @Aig_ObjCheckTfi(ptr noundef %58, ptr noundef %59, ptr noundef %60)
  %62 = icmp ne i32 %61, 0
  br i1 %62, label %63, label %66

63:                                               ; preds = %57
  %64 = load ptr, ptr %2, align 8
  %65 = load ptr, ptr %3, align 8
  call void @Aig_ObjClearRepr(ptr noundef %64, ptr noundef %65)
  br label %105

66:                                               ; preds = %57
  %67 = load ptr, ptr %3, align 8
  %68 = getelementptr inbounds %struct.Aig_Obj_t_, ptr %67, i32 0, i32 3
  %69 = load i64, ptr %68, align 8
  %70 = lshr i64 %69, 6
  %71 = and i64 %70, 67108863
  %72 = trunc i64 %71 to i32
  %73 = icmp sgt i32 %72, 0
  br i1 %73, label %74, label %77

74:                                               ; preds = %66
  %75 = load ptr, ptr %2, align 8
  %76 = load ptr, ptr %3, align 8
  call void @Aig_ObjClearRepr(ptr noundef %75, ptr noundef %76)
  br label %105

77:                                               ; preds = %66
  %78 = load ptr, ptr %2, align 8
  %79 = getelementptr inbounds %struct.Aig_Man_t_, ptr %78, i32 0, i32 30
  %80 = load ptr, ptr %79, align 8
  %81 = load ptr, ptr %4, align 8
  %82 = getelementptr inbounds %struct.Aig_Obj_t_, ptr %81, i32 0, i32 5
  %83 = load i32, ptr %82, align 4
  %84 = sext i32 %83 to i64
  %85 = getelementptr inbounds ptr, ptr %80, i64 %84
  %86 = load ptr, ptr %85, align 8
  %87 = load ptr, ptr %2, align 8
  %88 = getelementptr inbounds %struct.Aig_Man_t_, ptr %87, i32 0, i32 30
  %89 = load ptr, ptr %88, align 8
  %90 = load ptr, ptr %3, align 8
  %91 = getelementptr inbounds %struct.Aig_Obj_t_, ptr %90, i32 0, i32 5
  %92 = load i32, ptr %91, align 4
  %93 = sext i32 %92 to i64
  %94 = getelementptr inbounds ptr, ptr %89, i64 %93
  store ptr %86, ptr %94, align 8
  %95 = load ptr, ptr %3, align 8
  %96 = load ptr, ptr %2, align 8
  %97 = getelementptr inbounds %struct.Aig_Man_t_, ptr %96, i32 0, i32 30
  %98 = load ptr, ptr %97, align 8
  %99 = load ptr, ptr %4, align 8
  %100 = getelementptr inbounds %struct.Aig_Obj_t_, ptr %99, i32 0, i32 5
  %101 = load i32, ptr %100, align 4
  %102 = sext i32 %101 to i64
  %103 = getelementptr inbounds ptr, ptr %98, i64 %102
  store ptr %95, ptr %103, align 8
  br label %104

104:                                              ; preds = %77, %42
  br label %105

105:                                              ; preds = %104, %74, %63, %54, %49
  %106 = load i32, ptr %5, align 4
  %107 = add nsw i32 %106, 1
  store i32 %107, ptr %5, align 4
  br label %20, !llvm.loop !15

108:                                              ; preds = %33
  ret void
}