; Function Attrs: nounwind uwtable
define void @Aig_ManMarkValidChoices(ptr noundef initializes((248, 256)) %0) local_unnamed_addr #6 {
  %2 = getelementptr i8, ptr %0, i64 32
  %.val37 = load ptr, ptr %2, align 8
  %3 = getelementptr i8, ptr %.val37, i64 4
  %.val37.val = load i32, ptr %3, align 4
  %4 = sext i32 %.val37.val to i64
  %5 = shl nsw i64 %4, 3
  %6 = tail call noalias ptr @malloc(i64 noundef %5) #20
  %7 = getelementptr inbounds nuw i8, ptr %0, i64 248
  store ptr %6, ptr %7, align 8
  %.val36.val = load i32, ptr %3, align 4
  %8 = sext i32 %.val36.val to i64
  %9 = shl nsw i64 %8, 3
  tail call void @llvm.memset.p0.i64(ptr align 8 %6, i8 0, i64 %9, i1 false)
  %10 = icmp sgt i32 %.val36.val, 0
  br i1 %10, label %.lr.ph, label %.critedge

.lr.ph:                                           ; preds = %1
  %11 = getelementptr i8, ptr %0, i64 256
  br label %12

12:                                               ; preds = %.lr.ph, %60
  %indvars.iv = phi i64 [ 0, %.lr.ph ], [ %indvars.iv.next, %60 ]
  %13 = phi ptr [ %.val37, %.lr.ph ], [ %61, %60 ]
  %14 = getelementptr i8, ptr %13, i64 8
  %.val38 = load ptr, ptr %14, align 8
  %15 = getelementptr inbounds nuw ptr, ptr %.val38, i64 %indvars.iv
  %16 = load ptr, ptr %15, align 8
  %17 = icmp eq ptr %16, null
  br i1 %17, label %60, label %18

18:                                               ; preds = %12
  %19 = getelementptr i8, ptr %16, i64 24
  %.val42 = load i64, ptr %19, align 8
  %20 = trunc i64 %.val42 to i32
  %21 = and i32 %20, 7
  %22 = add nsw i32 %21, -7
  %narrow.i = icmp ult i32 %22, -2
  br i1 %narrow.i, label %60, label %23

23:                                               ; preds = %18
  %.val39 = load ptr, ptr %11, align 8
  %24 = getelementptr i8, ptr %16, i64 36
  %.val40 = load i32, ptr %24, align 4
  %25 = sext i32 %.val40 to i64
  %26 = getelementptr inbounds ptr, ptr %.val39, i64 %25
  %27 = load ptr, ptr %26, align 8
  %28 = icmp eq ptr %27, null
  br i1 %28, label %60, label %29

29:                                               ; preds = %23
  %30 = getelementptr i8, ptr %27, i64 24
  %.val41 = load i64, ptr %30, align 8
  %31 = trunc i64 %.val41 to i32
  %32 = and i32 %31, 7
  %33 = add nsw i32 %32, -7
  %narrow.i49 = icmp ult i32 %33, -2
  br i1 %narrow.i49, label %34, label %35

34:                                               ; preds = %29
  store ptr null, ptr %26, align 8
  br label %60

35:                                               ; preds = %29
  tail call void @Aig_ManIncrementTravId(ptr noundef nonnull %0) #18
  %36 = tail call range(i32 0, 2) i32 @Aig_ObjCheckTfi_rec(ptr noundef nonnull %0, ptr noundef nonnull %16, ptr noundef nonnull %27)
  %.not34 = icmp eq i32 %36, 0
  br i1 %.not34, label %40, label %37

37:                                               ; preds = %35
  %.val45 = load ptr, ptr %11, align 8
  %.val46 = load i32, ptr %24, align 4
  %38 = sext i32 %.val46 to i64
  %39 = getelementptr inbounds ptr, ptr %.val45, i64 %38
  store ptr null, ptr %39, align 8
  br label %60

40:                                               ; preds = %35
  %41 = load i64, ptr %19, align 8
  %42 = and i64 %41, 4294967232
  %.not35 = icmp eq i64 %42, 0
  br i1 %.not35, label %46, label %43

43:                                               ; preds = %40
  %.val47 = load ptr, ptr %11, align 8
  %.val48 = load i32, ptr %24, align 4
  %44 = sext i32 %.val48 to i64
  %45 = getelementptr inbounds ptr, ptr %.val47, i64 %44
  store ptr null, ptr %45, align 8
  br label %60

46:                                               ; preds = %40
  %47 = load ptr, ptr %7, align 8
  %48 = getelementptr inbounds nuw i8, ptr %27, i64 36
  %49 = load i32, ptr %48, align 4
  %50 = sext i32 %49 to i64
  %51 = getelementptr inbounds ptr, ptr %47, i64 %50
  %52 = load ptr, ptr %51, align 8
  %53 = load i32, ptr %24, align 4
  %54 = sext i32 %53 to i64
  %55 = getelementptr inbounds ptr, ptr %47, i64 %54
  store ptr %52, ptr %55, align 8
  %56 = load ptr, ptr %7, align 8
  %57 = load i32, ptr %48, align 4
  %58 = sext i32 %57 to i64
  %59 = getelementptr inbounds ptr, ptr %56, i64 %58
  store ptr %16, ptr %59, align 8
  br label %60

60:                                               ; preds = %46, %18, %12, %23, %43, %37, %34
  %indvars.iv.next = add nuw nsw i64 %indvars.iv, 1
  %61 = load ptr, ptr %2, align 8
  %62 = getelementptr i8, ptr %61, i64 4
  %.val = load i32, ptr %62, align 4
  %63 = sext i32 %.val to i64
  %64 = icmp slt i64 %indvars.iv.next, %63
  br i1 %64, label %12, label %.critedge, !llvm.loop !15

.critedge:                                        ; preds = %60, %1
  ret void
}